target datalayout = "e-m:e-p270:32:32-p271:32:32-p272:64:64-i64:64-i128:128-f80:128-n8:16:32:64-S128"
target triple = "x86_64-pc-linux-gnu"

; Function Attrs: nounwind uwtable
define ptr @cli_strtokbuf(ptr noundef %0, i32 noundef %1, ptr noundef %2, ptr noundef %3) #0 {
  %5 = alloca ptr, align 8
  %6 = alloca ptr, align 8
  %7 = alloca i32, align 4
  %8 = alloca ptr, align 8
  %9 = alloca ptr, align 8
  %10 = alloca i32, align 4
  %11 = alloca i32, align 4
  %12 = alloca i32, align 4
  store ptr %0, ptr %6, align 8
  store i32 %1, ptr %7, align 4
  store ptr %2, ptr %8, align 8
  store ptr %3, ptr %9, align 8
  store i32 0, ptr %10, align 4
  store i32 0, ptr %11, align 4
  br label %13

13:                                               ; preds = %67, %4
  %14 = load ptr, ptr %6, align 8
  %15 = load i32, ptr %11, align 4
  %16 = sext i32 %15 to i64
  %17 = getelementptr inbounds i8, ptr %14, i64 %16
  %18 = load i8, ptr %17, align 1
  %19 = sext i8 %18 to i32
  %20 = icmp ne i32 %19, 0
  br i1 %20, label %21, label %25

21:                                               ; preds = %13
  %22 = load i32, ptr %10, align 4
  %23 = load i32, ptr %7, align 4
  %24 = icmp ne i32 %22, %23
  br label %25

25:                                               ; preds = %21, %13
  %26 = phi i1 [ false, %13 ], [ %24, %21 ]
  br i1 %26, label %27, label %70

27:                                               ; preds = %25
  %28 = load ptr, ptr %8, align 8
  %29 = load ptr, ptr %6, align 8
  %30 = load i32, ptr %11, align 4
  %31 = sext i32 %30 to i64
  %32 = getelementptr inbounds i8, ptr %29, i64 %31
  %33 = load i8, ptr %32, align 1
  %34 = sext i8 %33 to i32
  %35 = call ptr @strchr(ptr noundef %28, i32 noundef %34) #7
  %36 = icmp ne ptr %35, null
  br i1 %36, label %37, label %66

37:                                               ; preds = %27
  %38 = load i32, ptr %10, align 4
  %39 = add nsw i32 %38, 1
  store i32 %39, ptr %10, align 4
  br label %40

40:                                               ; preds = %62, %37
  %41 = load ptr, ptr %6, align 8
  %42 = load i32, ptr %11, align 4
  %43 = add nsw i32 %42, 1
  %44 = sext i32 %43 to i64
  %45 = getelementptr inbounds i8, ptr %41, i64 %44
  %46 = load i8, ptr %45, align 1
  %47 = sext i8 %46 to i32
  %48 = icmp ne i32 %47, 0
  br i1 %48, label %49, label %60

49:                                               ; preds = %40
  %50 = load ptr, ptr %8, align 8
  %51 = load ptr, ptr %6, align 8
  %52 = load i32, ptr %11, align 4
  %53 = add nsw i32 %52, 1
  %54 = sext i32 %53 to i64
  %55 = getelementptr inbounds i8, ptr %51, i64 %54
  %56 = load i8, ptr %55, align 1
  %57 = sext i8 %56 to i32
  %58 = call ptr @strchr(ptr noundef %50, i32 noundef %57) #7
  %59 = icmp ne ptr %58, null
  br label %60

60:                                               ; preds = %49, %40
  %61 = phi i1 [ false, %40 ], [ %59, %49 ]
  br i1 %61, label %62, label %65

62:                                               ; preds = %60
  %63 = load i32, ptr %11, align 4
  %64 = add nsw i32 %63, 1
  store i32 %64, ptr %11, align 4
  br label %40

65:                                               ; preds = %60
  br label %66

66:                                               ; preds = %65, %27
  br label %67

67:                                               ; preds = %66
  %68 = load i32, ptr %11, align 4
  %69 = add nsw i32 %68, 1
  store i32 %69, ptr %11, align 4
  br label %13

70:                                               ; preds = %25
  %71 = load ptr, ptr %6, align 8
  %72 = load i32, ptr %11, align 4
  %73 = sext i32 %72 to i64
  %74 = getelementptr inbounds i8, ptr %71, i64 %73
  %75 = load i8, ptr %74, align 1
  %76 = sext i8 %75 to i32
  %77 = icmp eq i32 %76, 0
  br i1 %77, label %78, label %79

78:                                               ; preds = %70
  store ptr null, ptr %5, align 8
  br label %126

79:                                               ; preds = %70
  %80 = load i32, ptr %11, align 4
  store i32 %80, ptr %12, align 4
  br label %81

81:                                               ; preds = %100, %79
  %82 = load ptr, ptr %6, align 8
  %83 = load i32, ptr %12, align 4
  %84 = sext i32 %83 to i64
  %85 = getelementptr inbounds i8, ptr %82, i64 %84
  %86 = load i8, ptr %85, align 1
  %87 = icmp ne i8 %86, 0
  br i1 %87, label %88, label %103

88:                                               ; preds = %81
  %89 = load ptr, ptr %8, align 8
  %90 = load ptr, ptr %6, align 8
  %91 = load i32, ptr %12, align 4
  %92 = sext i32 %91 to i64
  %93 = getelementptr inbounds i8, ptr %90, i64 %92
  %94 = load i8, ptr %93, align 1
  %95 = sext i8 %94 to i32
  %96 = call ptr @strchr(ptr noundef %89, i32 noundef %95) #7
  %97 = icmp ne ptr %96, null
  br i1 %97, label %98, label %99

98:                                               ; preds = %88
  br label %103

99:                                               ; preds = %88
  br label %100

100:                                              ; preds = %99
  %101 = load i32, ptr %12, align 4
  %102 = add nsw i32 %101, 1
  store i32 %102, ptr %12, align 4
  br label %81

103:                                              ; preds = %98, %81
  %104 = load i32, ptr %11, align 4
  %105 = load i32, ptr %12, align 4
  %106 = icmp eq i32 %104, %105
  br i1 %106, label %107, label %108

107:                                              ; preds = %103
  store ptr null, ptr %5, align 8
  br label %126

108:                                              ; preds = %103
  %109 = load ptr, ptr %9, align 8
  %110 = load ptr, ptr %6, align 8
  %111 = load i32, ptr %11, align 4
  %112 = sext i32 %111 to i64
  %113 = getelementptr inbounds i8, ptr %110, i64 %112
  %114 = load i32, ptr %12, align 4
  %115 = load i32, ptr %11, align 4
  %116 = sub nsw i32 %114, %115
  %117 = sext i32 %116 to i64
  %118 = call ptr @strncpy(ptr noundef %109, ptr noundef %113, i64 noundef %117) #8
  %119 = load ptr, ptr %9, align 8
  %120 = load i32, ptr %12, align 4
  %121 = load i32, ptr %11, align 4
  %122 = sub nsw i32 %120, %121
  %123 = sext i32 %122 to i64
  %124 = getelementptr inbounds i8, ptr %119, i64 %123
  store i8 0, ptr %124, align 1
  %125 = load ptr, ptr %9, align 8
  store ptr %125, ptr %5, align 8
  br label %126

126:                                              ; preds = %108, %107, %78
  %127 = load ptr, ptr %5, align 8
  ret ptr %127
}