; Function Attrs: nofree nounwind memory(argmem: readwrite) uwtable
define noundef ptr @cli_strtokbuf(ptr nocapture noundef readonly %0, i32 noundef %1, ptr noundef readonly %2, ptr noundef %3) local_unnamed_addr #8 {
  %5 = load i8, ptr %0, align 1
  %6 = icmp ne i8 %5, 0
  %7 = icmp ne i32 %1, 0
  %8 = and i1 %6, %7
  br i1 %8, label %.lr.ph, label %._crit_edge

.lr.ph:                                           ; preds = %4, %.critedge
  %9 = phi i8 [ %25, %.critedge ], [ %5, %4 ]
  %.03549 = phi i32 [ %22, %.critedge ], [ 0, %4 ]
  %.03648 = phi i32 [ %.137, %.critedge ], [ 0, %4 ]
  %10 = sext i8 %9 to i32
  %11 = tail call ptr @strchr(ptr noundef nonnull dereferenceable(1) %2, i32 noundef %10) #26
  %.not43 = icmp eq ptr %11, null
  br i1 %.not43, label %.critedge, label %12

12:                                               ; preds = %.lr.ph
  %13 = add nsw i32 %.03648, 1
  %14 = sext i32 %.03549 to i64
  br label %15

15:                                               ; preds = %18, %12
  %indvars.iv = phi i64 [ %indvars.iv.next, %18 ], [ %14, %12 ]
  %indvars.iv.next = add nsw i64 %indvars.iv, 1
  %16 = getelementptr inbounds i8, ptr %0, i64 %indvars.iv.next
  %17 = load i8, ptr %16, align 1
  %.not44 = icmp eq i8 %17, 0
  br i1 %.not44, label %.critedge.loopexit, label %18

18:                                               ; preds = %15
  %19 = sext i8 %17 to i32
  %20 = tail call ptr @strchr(ptr noundef nonnull dereferenceable(1) %2, i32 noundef %19) #26
  %.not45 = icmp eq ptr %20, null
  br i1 %.not45, label %.critedge.loopexit, label %15

.critedge.loopexit:                               ; preds = %18, %15
  %21 = trunc nsw i64 %indvars.iv to i32
  br label %.critedge

.critedge:                                        ; preds = %.critedge.loopexit, %.lr.ph
  %.137 = phi i32 [ %.03648, %.lr.ph ], [ %13, %.critedge.loopexit ]
  %.2 = phi i32 [ %.03549, %.lr.ph ], [ %21, %.critedge.loopexit ]
  %22 = add nsw i32 %.2, 1
  %23 = sext i32 %22 to i64
  %24 = getelementptr inbounds i8, ptr %0, i64 %23
  %25 = load i8, ptr %24, align 1
  %26 = icmp ne i8 %25, 0
  %27 = icmp ne i32 %.137, %1
  %28 = select i1 %26, i1 %27, i1 false
  br i1 %28, label %.lr.ph, label %._crit_edge

._crit_edge:                                      ; preds = %.critedge, %4
  %.lcssa47 = phi i64 [ 0, %4 ], [ %23, %.critedge ]
  %.035.lcssa = phi i32 [ 0, %4 ], [ %22, %.critedge ]
  %29 = phi i8 [ %5, %4 ], [ %25, %.critedge ]
  %30 = getelementptr inbounds i8, ptr %0, i64 %.lcssa47
  %31 = icmp eq i8 %29, 0
  br i1 %31, label %47, label %.lr.ph54.preheader

.lr.ph54.preheader:                               ; preds = %._crit_edge
  %32 = sext i32 %.035.lcssa to i64
  br label %.lr.ph54

.lr.ph54:                                         ; preds = %.lr.ph54.preheader, %36
  %indvars.iv63 = phi i64 [ %32, %.lr.ph54.preheader ], [ %indvars.iv.next64, %36 ]
  %33 = phi i8 [ %29, %.lr.ph54.preheader ], [ %39, %36 ]
  %.053 = phi i32 [ %.035.lcssa, %.lr.ph54.preheader ], [ %37, %36 ]
  %34 = sext i8 %33 to i32
  %35 = tail call ptr @strchr(ptr noundef nonnull dereferenceable(1) %2, i32 noundef %34) #26
  %.not42 = icmp eq ptr %35, null
  br i1 %.not42, label %36, label %._crit_edge55.split.loop.exit68

36:                                               ; preds = %.lr.ph54
  %indvars.iv.next64 = add nsw i64 %indvars.iv63, 1
  %37 = add nsw i32 %.053, 1
  %38 = getelementptr inbounds i8, ptr %0, i64 %indvars.iv.next64
  %39 = load i8, ptr %38, align 1
  %.not = icmp eq i8 %39, 0
  br i1 %.not, label %._crit_edge55, label %.lr.ph54

._crit_edge55.split.loop.exit68:                  ; preds = %.lr.ph54
  %40 = trunc nsw i64 %indvars.iv63 to i32
  br label %._crit_edge55

._crit_edge55:                                    ; preds = %36, %._crit_edge55.split.loop.exit68
  %.0.lcssa.ph = phi i32 [ %40, %._crit_edge55.split.loop.exit68 ], [ %37, %36 ]
  %41 = icmp eq i32 %.035.lcssa, %.0.lcssa.ph
  br i1 %41, label %47, label %42

42:                                               ; preds = %._crit_edge55
  %43 = sub nsw i32 %.0.lcssa.ph, %.035.lcssa
  %44 = sext i32 %43 to i64
  %45 = tail call ptr @strncpy(ptr noundef %3, ptr noundef nonnull %30, i64 noundef %44) #27
  %46 = getelementptr inbounds i8, ptr %3, i64 %44
  store i8 0, ptr %46, align 1
  br label %47

47:                                               ; preds = %._crit_edge55, %._crit_edge, %42
  %.038 = phi ptr [ %3, %42 ], [ null, %._crit_edge ], [ null, %._crit_edge55 ]
  ret ptr %.038
}